; Function Attrs: mustprogress nounwind uwtable
define hidden void @_ZN13TemplateTable11_breakpointEv() local_unnamed_addr #0 align 2 {
  %1 = alloca %class.Address, align 16
  %2 = alloca %class.Address, align 16
  tail call void @_ZN13TemplateTable10transitionE8TosStateS0_(i32 noundef 9, i32 noundef 9) #8
  %3 = load ptr, ptr @_ZN13TemplateTable5_masmE, align 8
  %4 = load i8, ptr @PrintInterpreter, align 1
  %5 = trunc i8 %4 to i1
  br i1 %5, label %6, label %_ZN12Disassembler4hookI25InterpreterMacroAssemblerEEPT_PKciS3_.exit

6:                                                ; preds = %0
  tail call void @_ZN12Disassembler5_hookEPKciP14MacroAssembler(ptr noundef nonnull @.str, i32 noundef 4320, ptr noundef %3) #8
  br label %_ZN12Disassembler4hookI25InterpreterMacroAssemblerEEPT_PKciS3_.exit

_ZN12Disassembler4hookI25InterpreterMacroAssemblerEEPT_PKciS3_.exit: ; preds = %0, %6
  call void @llvm.lifetime.start.p0(i64 64, ptr nonnull %2)
  store <4 x i32> <i32 5, i32 -1, i32 -1, i32 -1>, ptr %2, align 16
  %7 = getelementptr inbounds i8, ptr %2, i64 16
  store i32 -24, ptr %7, align 16
  %8 = getelementptr inbounds i8, ptr %2, i64 20
  store i8 0, ptr %8, align 4
  %9 = getelementptr inbounds i8, ptr %2, i64 24
  store ptr getelementptr inbounds inrange(-16, 72) (i8, ptr @_ZTV10Relocation, i64 16), ptr %9, align 8
  %10 = getelementptr inbounds i8, ptr %2, i64 32
  store ptr null, ptr %10, align 16
  %11 = getelementptr inbounds i8, ptr %2, i64 40
  store i32 0, ptr %11, align 8
  call void @_ZN14MacroAssembler6movptrE8Register7Address(ptr noundef nonnull align 8 dereferenceable(40) %3, i32 6, ptr noundef nonnull %2) #8
  call void @llvm.lifetime.end.p0(i64 64, ptr nonnull %2)
  %12 = load ptr, ptr @_ZN13TemplateTable5_masmE, align 8
  %13 = load i8, ptr @PrintInterpreter, align 1
  %14 = trunc i8 %13 to i1
  br i1 %14, label %15, label %_ZN12Disassembler4hookI25InterpreterMacroAssemblerEEPT_PKciS3_.exit14

15:                                               ; preds = %_ZN12Disassembler4hookI25InterpreterMacroAssemblerEEPT_PKciS3_.exit
  call void @_ZN12Disassembler5_hookEPKciP14MacroAssembler(ptr noundef nonnull @.str, i32 noundef 4321, ptr noundef %12) #8
  br label %_ZN12Disassembler4hookI25InterpreterMacroAssemblerEEPT_PKciS3_.exit14

_ZN12Disassembler4hookI25InterpreterMacroAssemblerEEPT_PKciS3_.exit14: ; preds = %_ZN12Disassembler4hookI25InterpreterMacroAssemblerEEPT_PKciS3_.exit, %15
  call void @_ZN14MacroAssembler7call_VME8RegisterPhS0_S0_b(ptr noundef nonnull align 8 dereferenceable(40) %12, i32 -1, ptr noundef nonnull @_ZN18InterpreterRuntime24get_original_bytecode_atEP10JavaThreadP6MethodPh, i32 6, i32 13, i1 noundef zeroext true) #8
  %16 = load ptr, ptr @_ZN13TemplateTable5_masmE, align 8
  %17 = load i8, ptr @PrintInterpreter, align 1
  %18 = trunc i8 %17 to i1
  br i1 %18, label %19, label %_ZN12Disassembler4hookI25InterpreterMacroAssemblerEEPT_PKciS3_.exit15

19:                                               ; preds = %_ZN12Disassembler4hookI25InterpreterMacroAssemblerEEPT_PKciS3_.exit14
  call void @_ZN12Disassembler5_hookEPKciP14MacroAssembler(ptr noundef nonnull @.str, i32 noundef 4325, ptr noundef %16) #8
  br label %_ZN12Disassembler4hookI25InterpreterMacroAssemblerEEPT_PKciS3_.exit15

_ZN12Disassembler4hookI25InterpreterMacroAssemblerEEPT_PKciS3_.exit15: ; preds = %_ZN12Disassembler4hookI25InterpreterMacroAssemblerEEPT_PKciS3_.exit14, %19
  call void @_ZN9Assembler3movE8RegisterS0_(ptr noundef nonnull align 8 dereferenceable(40) %16, i32 3, i32 0) #8
  %20 = load ptr, ptr @_ZN13TemplateTable5_masmE, align 8
  %21 = load i8, ptr @PrintInterpreter, align 1
  %22 = trunc i8 %21 to i1
  br i1 %22, label %23, label %_ZN12Disassembler4hookI25InterpreterMacroAssemblerEEPT_PKciS3_.exit16

23:                                               ; preds = %_ZN12Disassembler4hookI25InterpreterMacroAssemblerEEPT_PKciS3_.exit15
  call void @_ZN12Disassembler5_hookEPKciP14MacroAssembler(ptr noundef nonnull @.str, i32 noundef 4328, ptr noundef %20) #8
  br label %_ZN12Disassembler4hookI25InterpreterMacroAssemblerEEPT_PKciS3_.exit16

_ZN12Disassembler4hookI25InterpreterMacroAssemblerEEPT_PKciS3_.exit16: ; preds = %_ZN12Disassembler4hookI25InterpreterMacroAssemblerEEPT_PKciS3_.exit15, %23
  call void @llvm.lifetime.start.p0(i64 64, ptr nonnull %1)
  store <4 x i32> <i32 5, i32 -1, i32 -1, i32 -1>, ptr %1, align 16
  %24 = getelementptr inbounds i8, ptr %1, i64 16
  store i32 -24, ptr %24, align 16
  %25 = getelementptr inbounds i8, ptr %1, i64 20
  store i8 0, ptr %25, align 4
  %26 = getelementptr inbounds i8, ptr %1, i64 24
  store ptr getelementptr inbounds inrange(-16, 72) (i8, ptr @_ZTV10Relocation, i64 16), ptr %26, align 8
  %27 = getelementptr inbounds i8, ptr %1, i64 32
  store ptr null, ptr %27, align 16
  %28 = getelementptr inbounds i8, ptr %1, i64 40
  store i32 0, ptr %28, align 8
  call void @_ZN14MacroAssembler6movptrE8Register7Address(ptr noundef nonnull align 8 dereferenceable(40) %20, i32 6, ptr noundef nonnull %1) #8
  call void @llvm.lifetime.end.p0(i64 64, ptr nonnull %1)
  %29 = load ptr, ptr @_ZN13TemplateTable5_masmE, align 8
  %30 = load i8, ptr @PrintInterpreter, align 1
  %31 = trunc i8 %30 to i1
  br i1 %31, label %32, label %_ZN12Disassembler4hookI25InterpreterMacroAssemblerEEPT_PKciS3_.exit17

32:                                               ; preds = %_ZN12Disassembler4hookI25InterpreterMacroAssemblerEEPT_PKciS3_.exit16
  call void @_ZN12Disassembler5_hookEPKciP14MacroAssembler(ptr noundef nonnull @.str, i32 noundef 4329, ptr noundef %29) #8
  br label %_ZN12Disassembler4hookI25InterpreterMacroAssemblerEEPT_PKciS3_.exit17

_ZN12Disassembler4hookI25InterpreterMacroAssemblerEEPT_PKciS3_.exit17: ; preds = %_ZN12Disassembler4hookI25InterpreterMacroAssemblerEEPT_PKciS3_.exit16, %32
  call void @_ZN14MacroAssembler7call_VME8RegisterPhS0_S0_b(ptr noundef nonnull align 8 dereferenceable(40) %29, i32 -1, ptr noundef nonnull @_ZN18InterpreterRuntime11_breakpointEP10JavaThreadP6MethodPh, i32 6, i32 13, i1 noundef zeroext true) #8
  %33 = load ptr, ptr @_ZN13TemplateTable5_masmE, align 8
  %34 = load i8, ptr @PrintInterpreter, align 1
  %35 = trunc i8 %34 to i1
  br i1 %35, label %36, label %_ZN12Disassembler4hookI25InterpreterMacroAssemblerEEPT_PKciS3_.exit18

36:                                               ; preds = %_ZN12Disassembler4hookI25InterpreterMacroAssemblerEEPT_PKciS3_.exit17
  call void @_ZN12Disassembler5_hookEPKciP14MacroAssembler(ptr noundef nonnull @.str, i32 noundef 4334, ptr noundef %33) #8
  br label %_ZN12Disassembler4hookI25InterpreterMacroAssemblerEEPT_PKciS3_.exit18

_ZN12Disassembler4hookI25InterpreterMacroAssemblerEEPT_PKciS3_.exit18: ; preds = %_ZN12Disassembler4hookI25InterpreterMacroAssemblerEEPT_PKciS3_.exit17, %36
  call void @_ZN25InterpreterMacroAssembler20dispatch_only_normalE8TosState(ptr noundef nonnull align 8 dereferenceable(48) %33, i32 noundef 9) #8
  ret void
}